target datalayout = "e-m:e-p270:32:32-p271:32:32-p272:64:64-i64:64-i128:128-f80:128-n8:16:32:64-S128"
target triple = "x86_64-pc-linux-gnu"

%struct.FunctionCallInfoBaseData = type { ptr, ptr, ptr, i32, i8, i16, [0 x %struct.NullableDatum] }
%struct.NullableDatum = type { i64, i8 }
%struct.FmgrInfo = type { ptr, i32, i16, i8, i8, i8, ptr, ptr, ptr }
%struct.ArrayMetaState = type { i32, i16, i8, i8, i8, i32, i32, %struct.FmgrInfo }

@.str.1 = private unnamed_addr constant [18 x i8] c"array_userfuncs.c\00", align 1
@.str.8 = private unnamed_addr constant [36 x i8] c"could not determine input data type\00", align 1
@CurrentMemoryContext = external global ptr, align 8
@__func__.fetch_array_arg_replace_nulls = private unnamed_addr constant [30 x i8] c"fetch_array_arg_replace_nulls\00", align 1
@.str.17 = private unnamed_addr constant [32 x i8] c"input data type is not an array\00", align 1

; Function Attrs: inlinehint nounwind uwtable
define internal ptr @MemoryContextSwitchTo(ptr noundef %0) #2 {
  %2 = alloca ptr, align 8
  %3 = alloca ptr, align 8
  store ptr %0, ptr %2, align 8
  call void @llvm.lifetime.start.p0(i64 8, ptr %3) #7
  %4 = load ptr, ptr @CurrentMemoryContext, align 8
  store ptr %4, ptr %3, align 8
  %5 = load ptr, ptr %2, align 8
  store ptr %5, ptr @CurrentMemoryContext, align 8
  %6 = load ptr, ptr %3, align 8
  call void @llvm.lifetime.end.p0(i64 8, ptr %3) #7
  ret ptr %6
}

; Function Attrs: nounwind uwtable
define internal ptr @fetch_array_arg_replace_nulls(ptr noundef %0, i32 noundef %1) #0 {
  %3 = alloca ptr, align 8
  %4 = alloca i32, align 4
  %5 = alloca ptr, align 8
  %6 = alloca i32, align 4
  %7 = alloca ptr, align 8
  %8 = alloca ptr, align 8
  %9 = alloca ptr, align 8
  %10 = alloca i32, align 4
  store ptr %0, ptr %3, align 8
  store i32 %1, ptr %4, align 4
  call void @llvm.lifetime.start.p0(i64 8, ptr %5) #7
  call void @llvm.lifetime.start.p0(i64 4, ptr %6) #7
  call void @llvm.lifetime.start.p0(i64 8, ptr %7) #7
  call void @llvm.lifetime.start.p0(i64 8, ptr %8) #7
  %11 = load ptr, ptr %3, align 8
  %12 = getelementptr inbounds nuw %struct.FunctionCallInfoBaseData, ptr %11, i32 0, i32 0
  %13 = load ptr, ptr %12, align 8
  %14 = getelementptr inbounds nuw %struct.FmgrInfo, ptr %13, i32 0, i32 6
  %15 = load ptr, ptr %14, align 8
  store ptr %15, ptr %7, align 8
  %16 = load ptr, ptr %7, align 8
  %17 = icmp eq ptr %16, null
  br i1 %17, label %18, label %32

18:                                               ; preds = %2
  %19 = load ptr, ptr %3, align 8
  %20 = getelementptr inbounds nuw %struct.FunctionCallInfoBaseData, ptr %19, i32 0, i32 0
  %21 = load ptr, ptr %20, align 8
  %22 = getelementptr inbounds nuw %struct.FmgrInfo, ptr %21, i32 0, i32 7
  %23 = load ptr, ptr %22, align 8
  %24 = call ptr @MemoryContextAlloc(ptr noundef %23, i64 noundef 72)
  store ptr %24, ptr %7, align 8
  %25 = load ptr, ptr %7, align 8
  %26 = getelementptr inbounds nuw %struct.ArrayMetaState, ptr %25, i32 0, i32 0
  store i32 0, ptr %26, align 8
  %27 = load ptr, ptr %7, align 8
  %28 = load ptr, ptr %3, align 8
  %29 = getelementptr inbounds nuw %struct.FunctionCallInfoBaseData, ptr %28, i32 0, i32 0
  %30 = load ptr, ptr %29, align 8
  %31 = getelementptr inbounds nuw %struct.FmgrInfo, ptr %30, i32 0, i32 6
  store ptr %27, ptr %31, align 8
  br label %32

32:                                               ; preds = %18, %2
  %33 = load ptr, ptr %3, align 8
  %34 = call i32 @AggCheckCallContext(ptr noundef %33, ptr noundef %8)
  %35 = icmp ne i32 %34, 0
  br i1 %35, label %38, label %36

36:                                               ; preds = %32
  %37 = load ptr, ptr @CurrentMemoryContext, align 8
  store ptr %37, ptr %8, align 8
  br label %38

38:                                               ; preds = %36, %32
  %39 = load ptr, ptr %3, align 8
  %40 = getelementptr inbounds nuw %struct.FunctionCallInfoBaseData, ptr %39, i32 0, i32 6
  %41 = load i32, ptr %4, align 4
  %42 = sext i32 %41 to i64
  %43 = getelementptr inbounds [0 x %struct.NullableDatum], ptr %40, i64 0, i64 %42
  %44 = getelementptr inbounds nuw %struct.NullableDatum, ptr %43, i32 0, i32 1
  %45 = load i8, ptr %44, align 8, !range !4, !noundef !5
  %46 = trunc i8 %45 to i1
  br i1 %46, label %61, label %47

47:                                               ; preds = %38
  call void @llvm.lifetime.start.p0(i64 8, ptr %9) #7
  %48 = load ptr, ptr %8, align 8
  %49 = call ptr @MemoryContextSwitchTo(ptr noundef %48)
  store ptr %49, ptr %9, align 8
  %50 = load ptr, ptr %3, align 8
  %51 = getelementptr inbounds nuw %struct.FunctionCallInfoBaseData, ptr %50, i32 0, i32 6
  %52 = load i32, ptr %4, align 4
  %53 = sext i32 %52 to i64
  %54 = getelementptr inbounds [0 x %struct.NullableDatum], ptr %51, i64 0, i64 %53
  %55 = getelementptr inbounds nuw %struct.NullableDatum, ptr %54, i32 0, i32 0
  %56 = load i64, ptr %55, align 8
  %57 = load ptr, ptr %7, align 8
  %58 = call ptr @DatumGetExpandedArrayX(i64 noundef %56, ptr noundef %57)
  store ptr %58, ptr %5, align 8
  %59 = load ptr, ptr %9, align 8
  %60 = call ptr @MemoryContextSwitchTo(ptr noundef %59)
  call void @llvm.lifetime.end.p0(i64 8, ptr %9) #7
  br label %103

61:                                               ; preds = %38
  call void @llvm.lifetime.start.p0(i64 4, ptr %10) #7
  %62 = load ptr, ptr %3, align 8
  %63 = getelementptr inbounds nuw %struct.FunctionCallInfoBaseData, ptr %62, i32 0, i32 0
  %64 = load ptr, ptr %63, align 8
  %65 = load i32, ptr %4, align 4
  %66 = call i32 @get_fn_expr_argtype(ptr noundef %64, i32 noundef %65)
  store i32 %66, ptr %10, align 4
  %67 = load i32, ptr %10, align 4
  %68 = icmp ne i32 %67, 0
  br i1 %68, label %81, label %69

69:                                               ; preds = %61
  br label %70

70:                                               ; preds = %69
  br i1 true, label %71, label %73

71:                                               ; preds = %70
  %72 = call zeroext i1 @errstart_cold(i32 noundef 21, ptr noundef null) #8
  br i1 %72, label %75, label %78

73:                                               ; preds = %70
  %74 = call zeroext i1 @errstart(i32 noundef 21, ptr noundef null)
  br i1 %74, label %75, label %78

75:                                               ; preds = %73, %71
  %76 = call i32 @errcode(i32 noundef 50856066)
  %77 = call i32 (ptr, ...) @errmsg(ptr noundef @.str.8)
  call void @errfinish(ptr noundef @.str.1, i32 noundef 103, ptr noundef @__func__.fetch_array_arg_replace_nulls)
  br label %78

78:                                               ; preds = %75, %73, %71
  unreachable

79:                                               ; No predecessors!
  br label %80

80:                                               ; preds = %79
  br label %81

81:                                               ; preds = %80, %61
  %82 = load i32, ptr %10, align 4
  %83 = call i32 @get_element_type(i32 noundef %82)
  store i32 %83, ptr %6, align 4
  %84 = load i32, ptr %6, align 4
  %85 = icmp ne i32 %84, 0
  br i1 %85, label %98, label %86

86:                                               ; preds = %81
  br label %87

87:                                               ; preds = %86
  br i1 true, label %88, label %90

88:                                               ; preds = %87
  %89 = call zeroext i1 @errstart_cold(i32 noundef 21, ptr noundef null) #8
  br i1 %89, label %92, label %95

90:                                               ; preds = %87
  %91 = call zeroext i1 @errstart(i32 noundef 21, ptr noundef null)
  br i1 %91, label %92, label %95

92:                                               ; preds = %90, %88
  %93 = call i32 @errcode(i32 noundef 67141764)
  %94 = call i32 (ptr, ...) @errmsg(ptr noundef @.str.17)
  call void @errfinish(ptr noundef @.str.1, i32 noundef 108, ptr noundef @__func__.fetch_array_arg_replace_nulls)
  br label %95

95:                                               ; preds = %92, %90, %88
  unreachable

96:                                               ; No predecessors!
  br label %97

97:                                               ; preds = %96
  br label %98

98:                                               ; preds = %97, %81
  %99 = load i32, ptr %6, align 4
  %100 = load ptr, ptr %8, align 8
  %101 = load ptr, ptr %7, align 8
  %102 = call ptr @construct_empty_expanded_array(i32 noundef %99, ptr noundef %100, ptr noundef %101)
  store ptr %102, ptr %5, align 8
  call void @llvm.lifetime.end.p0(i64 4, ptr %10) #7
  br label %103

103:                                              ; preds = %98, %47
  %104 = load ptr, ptr %5, align 8
  call void @llvm.lifetime.end.p0(i64 8, ptr %8) #7
  call void @llvm.lifetime.end.p0(i64 8, ptr %7) #7
  call void @llvm.lifetime.end.p0(i64 4, ptr %6) #7
  call void @llvm.lifetime.end.p0(i64 8, ptr %5) #7
  ret ptr %104
}