; Function Attrs: nounwind uwtable
define internal fastcc ptr @fetch_array_arg_replace_nulls(ptr noundef %0, i32 noundef range(i32 0, 2) %1) unnamed_addr #0 {
  %3 = alloca ptr, align 8
  call void @llvm.lifetime.start.p0(i64 8, ptr nonnull %3) #10
  %4 = load ptr, ptr %0, align 8
  %5 = getelementptr inbounds nuw i8, ptr %4, i64 24
  %6 = load ptr, ptr %5, align 8
  %7 = icmp eq ptr %6, null
  br i1 %7, label %8, label %14

8:                                                ; preds = %2
  %9 = getelementptr inbounds nuw i8, ptr %4, i64 32
  %10 = load ptr, ptr %9, align 8
  %11 = tail call ptr @MemoryContextAlloc(ptr noundef %10, i64 noundef 72) #10
  store i32 0, ptr %11, align 8
  %12 = load ptr, ptr %0, align 8
  %13 = getelementptr inbounds nuw i8, ptr %12, i64 24
  store ptr %11, ptr %13, align 8
  br label %14

14:                                               ; preds = %8, %2
  %.020 = phi ptr [ %11, %8 ], [ %6, %2 ]
  %15 = call i32 @AggCheckCallContext(ptr noundef nonnull %0, ptr noundef nonnull %3) #10
  %.not = icmp eq i32 %15, 0
  br i1 %.not, label %16, label %18

16:                                               ; preds = %14
  %17 = load ptr, ptr @CurrentMemoryContext, align 8
  store ptr %17, ptr %3, align 8
  br label %18

18:                                               ; preds = %16, %14
  %19 = getelementptr inbounds nuw i8, ptr %0, i64 32
  %20 = zext nneg i32 %1 to i64
  %21 = getelementptr inbounds nuw [0 x %struct.NullableDatum], ptr %19, i64 0, i64 %20
  %22 = getelementptr inbounds nuw i8, ptr %21, i64 8
  %23 = load i8, ptr %22, align 8, !range !4, !noundef !5
  %24 = trunc nuw i8 %23 to i1
  br i1 %24, label %30, label %25

25:                                               ; preds = %18
  %26 = load ptr, ptr %3, align 8
  %27 = load ptr, ptr @CurrentMemoryContext, align 8
  store ptr %26, ptr @CurrentMemoryContext, align 8
  %28 = load i64, ptr %21, align 8
  %29 = call ptr @DatumGetExpandedArrayX(i64 noundef %28, ptr noundef nonnull %.020) #10
  store ptr %27, ptr @CurrentMemoryContext, align 8
  br label %46

30:                                               ; preds = %18
  %31 = load ptr, ptr %0, align 8
  %32 = call i32 @get_fn_expr_argtype(ptr noundef %31, i32 noundef %1) #10
  %.not24 = icmp eq i32 %32, 0
  br i1 %.not24, label %33, label %37

33:                                               ; preds = %30
  %34 = call zeroext i1 @errstart_cold(i32 noundef 21, ptr noundef null) #11
  call void @llvm.assume(i1 %34)
  %35 = call i32 @errcode(i32 noundef 50856066) #10
  %36 = call i32 (ptr, ...) @errmsg(ptr noundef nonnull @.str.8) #10
  call void @errfinish(ptr noundef nonnull @.str.1, i32 noundef 103, ptr noundef nonnull @__func__.fetch_array_arg_replace_nulls) #10
  unreachable

37:                                               ; preds = %30
  %38 = call i32 @get_element_type(i32 noundef %32) #10
  %.not25 = icmp eq i32 %38, 0
  br i1 %.not25, label %39, label %43

39:                                               ; preds = %37
  %40 = call zeroext i1 @errstart_cold(i32 noundef 21, ptr noundef null) #11
  call void @llvm.assume(i1 %40)
  %41 = call i32 @errcode(i32 noundef 67141764) #10
  %42 = call i32 (ptr, ...) @errmsg(ptr noundef nonnull @.str.17) #10
  call void @errfinish(ptr noundef nonnull @.str.1, i32 noundef 108, ptr noundef nonnull @__func__.fetch_array_arg_replace_nulls) #10
  unreachable

43:                                               ; preds = %37
  %44 = load ptr, ptr %3, align 8
  %45 = call ptr @construct_empty_expanded_array(i32 noundef %38, ptr noundef %44, ptr noundef nonnull %.020) #10
  br label %46

46:                                               ; preds = %43, %25
  %.0 = phi ptr [ %45, %43 ], [ %29, %25 ]
  call void @llvm.lifetime.end.p0(i64 8, ptr nonnull %3) #10
  ret ptr %.0
}